; ModuleID = '50/881.c'
source_filename = "50/881.c"
target datalayout = "e-m:e-p270:32:32-p271:32:32-p272:64:64-i64:64-f80:128-n8:16:32:64-S128"
target triple = "x86_64-pc-linux-gnu"

@Month = dso_local global [12 x i32] [i32 31, i32 28, i32 31, i32 30, i32 31, i32 30, i32 31, i32 31, i32 30, i32 31, i32 30, i32 31], align 16
@.str = private unnamed_addr constant [3 x i8] c"%d\00", align 1
@.str.1 = private unnamed_addr constant [4 x i8] c"%d\0A\00", align 1

; Function Attrs: noinline nounwind uwtable
define dso_local i32 @main() #0 {
  %1 = alloca i32, align 4
  %2 = alloca i32, align 4
  %3 = alloca i32, align 4
  %4 = alloca i32, align 4
  store i32 0, i32* %1, align 4
  %5 = call i32 (i8*, ...) @__isoc99_scanf(i8* getelementptr inbounds ([3 x i8], [3 x i8]* @.str, i64 0, i64 0), i32* %2)
  %6 = load i32, i32* %2, align 4
  %7 = add nsw i32 %6, -1
  store i32 %7, i32* %2, align 4
  store i32 0, i32* %3, align 4
  br label %8

8:                                                ; preds = %37, %0
  %9 = load i32, i32* %3, align 4
  %10 = icmp slt i32 %9, 12
  br i1 %10, label %11, label %40

11:                                               ; preds = %8
  store i32 1, i32* %4, align 4
  br label %12

12:                                               ; preds = %33, %11
  %13 = load i32, i32* %4, align 4
  %14 = load i32, i32* %3, align 4
  %15 = sext i32 %14 to i64
  %16 = getelementptr inbounds [12 x i32], [12 x i32]* @Month, i64 0, i64 %15
  %17 = load i32, i32* %16, align 4
  %18 = icmp sle i32 %13, %17
  br i1 %18, label %19, label %36

19:                                               ; preds = %12
  %20 = load i32, i32* %2, align 4
  %21 = add nsw i32 %20, 1
  store i32 %21, i32* %2, align 4
  %22 = load i32, i32* %2, align 4
  %23 = srem i32 %22, 7
  %24 = icmp eq i32 %23, 5
  br i1 %24, label %25, label %32

25:                                               ; preds = %19
  %26 = load i32, i32* %4, align 4
  %27 = icmp eq i32 %26, 13
  br i1 %27, label %28, label %32

28:                                               ; preds = %25
  %29 = load i32, i32* %3, align 4
  %30 = add nsw i32 %29, 1
  %31 = call i32 (i8*, ...) @printf(i8* getelementptr inbounds ([4 x i8], [4 x i8]* @.str.1, i64 0, i64 0), i32 %30)
  br label %32

32:                                               ; preds = %28, %25, %19
  br label %33

33:                                               ; preds = %32
  %34 = load i32, i32* %4, align 4
  %35 = add nsw i32 %34, 1
  store i32 %35, i32* %4, align 4
  br label %12

36:                                               ; preds = %12
  br label %37

37:                                               ; preds = %36
  %38 = load i32, i32* %3, align 4
  %39 = add nsw i32 %38, 1
  store i32 %39, i32* %3, align 4
  br label %8

40:                                               ; preds = %8
  ret i32 0
}

declare dso_local i32 @__isoc99_scanf(i8*, ...) #1

declare dso_local i32 @printf(i8*, ...) #1


!llvm.module.flags = !{!0}
!llvm.ident = !{!1}

!0 = !{i32 1, !"wchar_size", i32 4}
!1 = !{!"clang version 10.0.0-4ubuntu1 "}
