; ModuleID = 'source-C-CXX/49/881.c'
source_filename = "source-C-CXX/49/881.c"
target datalayout = "e-m:e-p270:32:32-p271:32:32-p272:64:64-i64:64-f80:128-n8:16:32:64-S128"
target triple = "x86_64-pc-linux-gnu"

@Month = dso_local local_unnamed_addr global [12 x i32] [i32 31, i32 28, i32 31, i32 30, i32 31, i32 30, i32 31, i32 31, i32 30, i32 31, i32 30, i32 31], align 16
@.str = private unnamed_addr constant [3 x i8] c"%d\00", align 1
@.str.1 = private unnamed_addr constant [4 x i8] c"%d\0A\00", align 1

; Function Attrs: nofree nounwind sspstrong uwtable
define dso_local i32 @main() local_unnamed_addr #0 {
  %1 = alloca i32, align 4
  %2 = bitcast i32* %1 to i8*
  call void @llvm.lifetime.start.p0i8(i64 4, i8* nonnull %2) #3
  %3 = call i32 (i8*, ...) @__isoc99_scanf(i8* getelementptr inbounds ([3 x i8], [3 x i8]* @.str, i64 0, i64 0), i32* nonnull %1)
  %4 = load i32, i32* %1, align 4, !tbaa !5
  %5 = add nsw i32 %4, -1
  store i32 %5, i32* %1, align 4, !tbaa !5
  br label %6

6:                                                ; preds = %0, %15
  %7 = phi i64 [ 0, %0 ], [ %9, %15 ]
  %8 = getelementptr inbounds [12 x i32], [12 x i32]* @Month, i64 0, i64 %7
  %9 = add nuw nsw i64 %7, 1
  %10 = load i32, i32* %8, align 4, !tbaa !5
  %11 = icmp slt i32 %10, 1
  br i1 %11, label %15, label %12

12:                                               ; preds = %6
  %13 = trunc i64 %9 to i32
  br label %17

14:                                               ; preds = %15
  call void @llvm.lifetime.end.p0i8(i64 4, i8* nonnull %2) #3
  ret i32 0

15:                                               ; preds = %29, %6
  %16 = icmp eq i64 %9, 12
  br i1 %16, label %14, label %6, !llvm.loop !9

17:                                               ; preds = %12, %29
  %18 = phi i32 [ %30, %29 ], [ %10, %12 ]
  %19 = phi i32 [ %31, %29 ], [ 1, %12 ]
  %20 = load i32, i32* %1, align 4, !tbaa !5
  %21 = add nsw i32 %20, 1
  store i32 %21, i32* %1, align 4, !tbaa !5
  %22 = srem i32 %21, 7
  %23 = icmp eq i32 %22, 5
  %24 = icmp eq i32 %19, 13
  %25 = select i1 %23, i1 %24, i1 false
  br i1 %25, label %26, label %29

26:                                               ; preds = %17
  %27 = call i32 (i8*, ...) @printf(i8* nonnull dereferenceable(1) getelementptr inbounds ([4 x i8], [4 x i8]* @.str.1, i64 0, i64 0), i32 %13)
  %28 = load i32, i32* %8, align 4, !tbaa !5
  br label %29

29:                                               ; preds = %17, %26
  %30 = phi i32 [ %18, %17 ], [ %28, %26 ]
  %31 = add nuw nsw i32 %19, 1
  %32 = icmp slt i32 %19, %30
  br i1 %32, label %17, label %15, !llvm.loop !11
}

; Function Attrs: argmemonly mustprogress nofree nosync nounwind willreturn
declare void @llvm.lifetime.start.p0i8(i64 immarg, i8* nocapture) #1

; Function Attrs: nofree nounwind
declare noundef i32 @__isoc99_scanf(i8* nocapture noundef readonly, ...) local_unnamed_addr #2

; Function Attrs: nofree nounwind
declare noundef i32 @printf(i8* nocapture noundef readonly, ...) local_unnamed_addr #2

; Function Attrs: argmemonly mustprogress nofree nosync nounwind willreturn
declare void @llvm.lifetime.end.p0i8(i64 immarg, i8* nocapture) #1


!llvm.module.flags = !{!0, !1, !2, !3}
!llvm.ident = !{!4}

!0 = !{i32 1, !"wchar_size", i32 4}
!1 = !{i32 7, !"PIC Level", i32 2}
!2 = !{i32 7, !"PIE Level", i32 2}
!3 = !{i32 7, !"uwtable", i32 1}
!4 = !{!"clang version 13.0.0"}
!5 = !{!6, !6, i64 0}
!6 = !{!"int", !7, i64 0}
!7 = !{!"omnipotent char", !8, i64 0}
!8 = !{!"Simple C/C++ TBAA"}
!9 = distinct !{!9, !10}
!10 = !{!"llvm.loop.mustprogress"}
!11 = distinct !{!11, !10}
